(dp0
I0
S'10_speed_limit'
p1
sI1
S'20_speed_limit'
p2
sI2
S'30_speed_limit'
p3
sI3
S'40_speed_limit'
p4
sI4
S'50_speed_limit'
p5
sI5
S'60_speed_limit'
p6
sI6
S'70_speed_limit'
p7
sI7
S'80_speed_limit'
p8
sI8
S'90_speed_limit'
p9
sI9
S'end_10_speed_limit'
p10
sI10
S'end_20_speed_limit'
p11
sI11
S'end_30_speed_limit'
p12
sI12
S'end_40_speed_limit'
p13
sI13
S'end_50_speed_limit'
p14
sI14
S'end_60_speed_limit'
p15
sI15
S'end_70_speed_limit'
p16
sI16
S'end_80_speed_limit'
p17
sI17
S'end_90_speed_limit'
p18
sI18
S'right_arrow'
p19
sI19
S'left_arrow'
p20
sI20
S'startline'
p21
sI21
S'broken_crossing_line'
p22
sI22
S'continuous_crossing_line'
p23
sI23
S'left_crossing_turning_line'
p24
sI24
S'right_crossing_turning_line'
p25
sI25
g21
sI26
S'zebra_crossing'
p26
s.